; Function Attrs: mustprogress uwtable
define void @_ZN5Ipopt14IpoptAlgorithm18InitializeIteratesEv(ptr noundef nonnull readonly align 8 captures(none) dereferenceable(200) %0) local_unnamed_addr #3 align 2 personality ptr @__gxx_personality_v0 {
  %2 = alloca %"class.std::__cxx11::basic_string", align 8
  %3 = alloca %"class.std::allocator", align 1
  %4 = alloca %"class.std::__cxx11::basic_string", align 8
  %5 = alloca %"class.std::allocator", align 1
  %6 = getelementptr inbounds nuw i8, ptr %0, i64 88
  %7 = load ptr, ptr %6, align 8, !tbaa !23
  %8 = load ptr, ptr %7, align 8, !tbaa !8
  %9 = getelementptr inbounds nuw i8, ptr %8, i64 24
  %10 = load ptr, ptr %9, align 8
  %11 = tail call noundef zeroext i1 %10(ptr noundef nonnull align 8 dereferenceable(49) %7)
  br i1 %11, label %43, label %12

12:                                               ; preds = %1
  call void @llvm.lifetime.start.p0(i64 32, ptr nonnull %2) #21
  call void @llvm.lifetime.start.p0(i64 1, ptr nonnull %3) #21
  call void @_ZNSt7__cxx1112basic_stringIcSt11char_traitsIcESaIcEEC2IS3_EEPKcRKS3_(ptr noundef nonnull align 8 dereferenceable(32) %2, ptr noundef nonnull @.str.75, ptr noundef nonnull align 1 dereferenceable(1) %3)
  call void @llvm.lifetime.end.p0(i64 1, ptr nonnull %3) #21
  %13 = invoke noundef nonnull align 8 dereferenceable(32) ptr @_ZNSt7__cxx1112basic_stringIcSt11char_traitsIcESaIcEEpLEPKc(ptr noundef nonnull align 8 dereferenceable(32) %2, ptr noundef nonnull @.str.29)
          to label %14 unwind label %20

14:                                               ; preds = %12
  %15 = invoke noundef nonnull align 8 dereferenceable(32) ptr @_ZNSt7__cxx1112basic_stringIcSt11char_traitsIcESaIcEEpLEPKc(ptr noundef nonnull align 8 dereferenceable(32) %2, ptr noundef nonnull @.str.76)
          to label %16 unwind label %20

16:                                               ; preds = %14
  %17 = call ptr @__cxa_allocate_exception(i64 112) #21
  call void @llvm.lifetime.start.p0(i64 32, ptr nonnull %4) #21
  call void @llvm.lifetime.start.p0(i64 1, ptr nonnull %5) #21
  invoke void @_ZNSt7__cxx1112basic_stringIcSt11char_traitsIcESaIcEEC2IS3_EEPKcRKS3_(ptr noundef nonnull align 8 dereferenceable(32) %4, ptr noundef nonnull @.str.31, ptr noundef nonnull align 1 dereferenceable(1) %5)
          to label %18 unwind label %_ZNSt7__cxx1112basic_stringIcSt11char_traitsIcESaIcEED2Ev.exit.thread

18:                                               ; preds = %16
  invoke void @_ZN5Ipopt21FAILED_INITIALIZATIONC2ERKNSt7__cxx1112basic_stringIcSt11char_traitsIcESaIcEEES8_i(ptr noundef nonnull align 8 dereferenceable(112) %17, ptr noundef nonnull align 8 dereferenceable(32) %2, ptr noundef nonnull align 8 dereferenceable(32) %4, i32 noundef 649)
          to label %19 unwind label %23

19:                                               ; preds = %18
  invoke void @__cxa_throw(ptr nonnull %17, ptr nonnull @_ZTIN5Ipopt21FAILED_INITIALIZATIONE, ptr nonnull @_ZN5Ipopt14IpoptExceptionD2Ev) #23
          to label %44 unwind label %23

20:                                               ; preds = %14, %12
  %21 = landingpad { ptr, i32 }
          cleanup
  br label %34

_ZNSt7__cxx1112basic_stringIcSt11char_traitsIcESaIcEED2Ev.exit.thread: ; preds = %16
  %22 = landingpad { ptr, i32 }
          cleanup
  call void @llvm.lifetime.end.p0(i64 1, ptr nonnull %5) #21
  call void @llvm.lifetime.end.p0(i64 32, ptr nonnull %4) #21
  br label %33

23:                                               ; preds = %19, %18
  %.0 = phi i1 [ false, %19 ], [ true, %18 ]
  %24 = landingpad { ptr, i32 }
          cleanup
  %25 = load ptr, ptr %4, align 8, !tbaa !38
  %26 = getelementptr inbounds nuw i8, ptr %4, i64 16
  %27 = icmp eq ptr %25, %26
  br i1 %27, label %_ZNKSt7__cxx1112basic_stringIcSt11char_traitsIcESaIcEE11_M_is_localEv.exit.thread.i.i, label %_ZNSt7__cxx1112basic_stringIcSt11char_traitsIcESaIcEED2Ev.exit

_ZNKSt7__cxx1112basic_stringIcSt11char_traitsIcESaIcEE11_M_is_localEv.exit.thread.i.i: ; preds = %23
  %28 = getelementptr inbounds nuw i8, ptr %4, i64 8
  %29 = load i64, ptr %28, align 8, !tbaa !41
  %30 = icmp ult i64 %29, 16
  call void @llvm.assume(i1 %30)
  call void @llvm.lifetime.end.p0(i64 1, ptr nonnull %5) #21
  call void @llvm.lifetime.end.p0(i64 32, ptr nonnull %4) #21
  br i1 %.0, label %33, label %34

_ZNSt7__cxx1112basic_stringIcSt11char_traitsIcESaIcEED2Ev.exit: ; preds = %23
  %31 = load i64, ptr %26, align 8, !tbaa !43
  %32 = add i64 %31, 1
  call void @_ZdlPvm(ptr noundef %25, i64 noundef %32) #22
  call void @llvm.lifetime.end.p0(i64 1, ptr nonnull %5) #21
  call void @llvm.lifetime.end.p0(i64 32, ptr nonnull %4) #21
  br i1 %.0, label %33, label %34

33:                                               ; preds = %_ZNKSt7__cxx1112basic_stringIcSt11char_traitsIcESaIcEE11_M_is_localEv.exit.thread.i.i, %_ZNSt7__cxx1112basic_stringIcSt11char_traitsIcESaIcEED2Ev.exit.thread, %_ZNSt7__cxx1112basic_stringIcSt11char_traitsIcESaIcEED2Ev.exit
  %.pn17 = phi { ptr, i32 } [ %22, %_ZNSt7__cxx1112basic_stringIcSt11char_traitsIcESaIcEED2Ev.exit.thread ], [ %24, %_ZNSt7__cxx1112basic_stringIcSt11char_traitsIcESaIcEED2Ev.exit ], [ %24, %_ZNKSt7__cxx1112basic_stringIcSt11char_traitsIcESaIcEE11_M_is_localEv.exit.thread.i.i ]
  call void @__cxa_free_exception(ptr %17) #21
  br label %34

34:                                               ; preds = %_ZNKSt7__cxx1112basic_stringIcSt11char_traitsIcESaIcEE11_M_is_localEv.exit.thread.i.i, %_ZNSt7__cxx1112basic_stringIcSt11char_traitsIcESaIcEED2Ev.exit, %33, %20
  %.pn.pn = phi { ptr, i32 } [ %.pn17, %33 ], [ %24, %_ZNSt7__cxx1112basic_stringIcSt11char_traitsIcESaIcEED2Ev.exit ], [ %21, %20 ], [ %24, %_ZNKSt7__cxx1112basic_stringIcSt11char_traitsIcESaIcEE11_M_is_localEv.exit.thread.i.i ]
  %35 = load ptr, ptr %2, align 8, !tbaa !38
  %36 = getelementptr inbounds nuw i8, ptr %2, i64 16
  %37 = icmp eq ptr %35, %36
  br i1 %37, label %_ZNKSt7__cxx1112basic_stringIcSt11char_traitsIcESaIcEE11_M_is_localEv.exit.thread.i.i13, label %_ZNKSt7__cxx1112basic_stringIcSt11char_traitsIcESaIcEE11_M_is_localEv.exit.i.i12

_ZNKSt7__cxx1112basic_stringIcSt11char_traitsIcESaIcEE11_M_is_localEv.exit.thread.i.i13: ; preds = %34
  %38 = getelementptr inbounds nuw i8, ptr %2, i64 8
  %39 = load i64, ptr %38, align 8, !tbaa !41
  %40 = icmp ult i64 %39, 16
  call void @llvm.assume(i1 %40)
  br label %_ZNSt7__cxx1112basic_stringIcSt11char_traitsIcESaIcEED2Ev.exit14

_ZNKSt7__cxx1112basic_stringIcSt11char_traitsIcESaIcEE11_M_is_localEv.exit.i.i12: ; preds = %34
  %41 = load i64, ptr %36, align 8, !tbaa !43
  %42 = add i64 %41, 1
  call void @_ZdlPvm(ptr noundef %35, i64 noundef %42) #22
  br label %_ZNSt7__cxx1112basic_stringIcSt11char_traitsIcESaIcEED2Ev.exit14

_ZNSt7__cxx1112basic_stringIcSt11char_traitsIcESaIcEED2Ev.exit14: ; preds = %_ZNKSt7__cxx1112basic_stringIcSt11char_traitsIcESaIcEE11_M_is_localEv.exit.i.i12, %_ZNKSt7__cxx1112basic_stringIcSt11char_traitsIcESaIcEE11_M_is_localEv.exit.thread.i.i13
  call void @llvm.lifetime.end.p0(i64 32, ptr nonnull %2) #21
  resume { ptr, i32 } %.pn.pn

43:                                               ; preds = %1
  ret void

44:                                               ; preds = %19
  unreachable
}